; Function Attrs: mustprogress uwtable
define void @_ZNK6casadi7Project10ad_forwardERKSt6vectorIS1_INS_2MXESaIS2_EESaIS4_EERS6_(ptr noundef nonnull align 8 dereferenceable(64) %0, ptr nocapture noundef nonnull readonly align 8 dereferenceable(24) %1, ptr nocapture noundef nonnull readonly align 8 dereferenceable(24) %2) unnamed_addr #3 align 2 personality ptr @__gxx_personality_v0 {
  %4 = alloca %"class.casadi::MX", align 8
  %5 = alloca %"class.casadi::Sparsity", align 8
  %6 = getelementptr inbounds i8, ptr %2, i64 8
  %7 = load ptr, ptr %6, align 8
  %8 = load ptr, ptr %2, align 8
  %9 = ptrtoint ptr %7 to i64
  %10 = ptrtoint ptr %8 to i64
  %11 = sub i64 %9, %10
  %12 = icmp sgt i64 %11, 0
  br i1 %12, label %.lr.ph, label %._crit_edge

.lr.ph:                                           ; preds = %3
  %13 = udiv exact i64 %11, 24
  %14 = getelementptr inbounds i8, ptr %0, i64 32
  %15 = getelementptr inbounds i8, ptr %0, i64 40
  %16 = getelementptr inbounds i8, ptr %0, i64 56
  %17 = tail call i64 @llvm.umax.i64(i64 %13, i64 1)
  br label %18

18:                                               ; preds = %.lr.ph, %_ZN6casadi2MXaSERKS0_.exit
  %.01113 = phi i64 [ 0, %.lr.ph ], [ %30, %_ZN6casadi2MXaSERKS0_.exit ]
  %19 = load ptr, ptr %15, align 8
  %20 = load ptr, ptr %14, align 8
  %.not.i.i.i.not = icmp eq ptr %19, %20
  br i1 %.not.i.i.i.not, label %21, label %_ZNK6casadi6MXNode3depEx.exit

21:                                               ; preds = %18
  call void (ptr, ...) @_ZSt24__throw_out_of_range_fmtPKcz(ptr noundef nonnull @.str.10, i64 noundef 0, i64 noundef 0) #17
  unreachable

_ZNK6casadi6MXNode3depEx.exit:                    ; preds = %18
  %22 = load ptr, ptr %1, align 8
  %23 = getelementptr inbounds %"class.std::vector", ptr %22, i64 %.01113
  %24 = load ptr, ptr %23, align 8
  %25 = call noundef nonnull align 8 dereferenceable(8) ptr @_ZNK6casadi2MX8sparsityEv(ptr noundef nonnull align 8 dereferenceable(8) %20)
  call void @_ZNK6casadi8SparsitymlERKS0_(ptr dead_on_unwind nonnull writable sret(%"class.casadi::Sparsity") align 8 %5, ptr noundef nonnull align 8 dereferenceable(8) %16, ptr noundef nonnull align 8 dereferenceable(8) %25)
  invoke void @_ZN6casadi2MX7projectERKS0_RKNS_8SparsityEb(ptr dead_on_unwind nonnull writable sret(%"class.casadi::MX") align 8 %4, ptr noundef nonnull align 8 dereferenceable(8) %24, ptr noundef nonnull align 8 dereferenceable(8) %5, i1 noundef zeroext true)
          to label %_ZN6casadi7projectERKNS_2MXERKNS_8SparsityEb.exit unwind label %31

_ZN6casadi7projectERKNS_2MXERKNS_8SparsityEb.exit: ; preds = %_ZNK6casadi6MXNode3depEx.exit
  %26 = load ptr, ptr %2, align 8
  %27 = getelementptr inbounds %"class.std::vector", ptr %26, i64 %.01113
  %28 = load ptr, ptr %27, align 8
  %29 = invoke noundef nonnull align 8 dereferenceable(8) ptr @_ZN6casadi12SharedObjectaSERKS0_(ptr noundef nonnull align 8 dereferenceable(8) %28, ptr noundef nonnull align 8 dereferenceable(8) %4)
          to label %_ZN6casadi2MXaSERKS0_.exit unwind label %33

_ZN6casadi2MXaSERKS0_.exit:                       ; preds = %_ZN6casadi7projectERKNS_2MXERKNS_8SparsityEb.exit
  call void @_ZN6casadi2MXD1Ev(ptr noundef nonnull align 8 dereferenceable(8) %4) #16
  call void @_ZN6casadi12SharedObjectD2Ev(ptr noundef nonnull align 8 dereferenceable(8) %5) #16
  %30 = add nuw nsw i64 %.01113, 1
  %exitcond.not = icmp eq i64 %30, %17
  br i1 %exitcond.not, label %._crit_edge, label %18, !llvm.loop !13

31:                                               ; preds = %_ZNK6casadi6MXNode3depEx.exit
  %32 = landingpad { ptr, i32 }
          cleanup
  br label %35

33:                                               ; preds = %_ZN6casadi7projectERKNS_2MXERKNS_8SparsityEb.exit
  %34 = landingpad { ptr, i32 }
          cleanup
  call void @_ZN6casadi2MXD1Ev(ptr noundef nonnull align 8 dereferenceable(8) %4) #16
  br label %35

35:                                               ; preds = %33, %31
  %.pn = phi { ptr, i32 } [ %34, %33 ], [ %32, %31 ]
  call void @_ZN6casadi12SharedObjectD2Ev(ptr noundef nonnull align 8 dereferenceable(8) %5) #16
  resume { ptr, i32 } %.pn

._crit_edge:                                      ; preds = %_ZN6casadi2MXaSERKS0_.exit, %3
  ret void
}